MPASM 5.83  /HOME/MALEK/MPLABXPROJECTS/MEMOR   4-12-2019  18:31:13         PAGE  1


LOC  OBJECT CODE     LINE SOURCE TEXT
  VALUE

                      00001     title       "LCD"
                      00002     list        p=16f84A
                      00003     radix       hex
                      00004     include "p16f84a.inc"
                      00001         LIST
                      00002 
                      00003 ;==========================================================================
                      00004 ; Build date : Jan 21 2019
                      00005 ;  MPASM PIC16F84A processor include
                      00006 ; 
                      00007 ;  (c) Copyright 1999-2019 Microchip Technology, All rights reserved
                      00008 ;==========================================================================
                      00009 
                      00209         LIST
                      00005 
  0000000C            00006 COUNT1  EQU     d'12'
  0000000D            00007 COUNT2  EQU     d'13'
  0000000E            00008 COUNT3  EQU     d'14'
  0000000F            00009 COUNT4  EQU     d'15'
  00000010            00010 COUNT5  EQU     d'16'
  00000011            00011 COUNT6  EQU     d'17'
                      00012 
  00000012            00013 CURSOR_POS  EQU d'18' ; Register stores detail about the cursor's current position. Bits[3:0] specify co
                            lumn number, where as bit 4 specifies the row.
                      00014                       ; Since there are 16 columns and 2 rows, such an encoding is guaranteed to span al
                            l cells on the LCD.
  00000013            00015 CHAR_CODE   EQU d'19'
                      00016 
  00000014            00017 FLAG_REG    EQU d'20' ; Register containing some flags to be used within the program. Structure: [-,-,-,
                            -,-,-,-,Main Menu Flag]
                      00018    
  00000004            00019 LEFT_BTN    EQU d'4'
  00000005            00020 RIGHT_BTN   EQU d'5'
  00000006            00021 UP_DOWN_BTN EQU d'6'
  00000007            00022 CONFIRM_BTN EQU d'7'
                      00023  
  00000041            00024 LTR_A   EQU b'01000001'
  00000042            00025 LTR_B   EQU b'01000010' 
  00000043            00026 LTR_C   EQU b'01000011' 
  00000044            00027 LTR_D   EQU b'01000100'
  00000045            00028 LTR_E   EQU b'01000101'
  00000046            00029 LTR_F   EQU b'01000110'
  00000047            00030 LTR_G   EQU b'01000111' 
  00000048            00031 LTR_H   EQU b'01001000'
  00000049            00032 LTR_I   EQU b'01001001' 
  0000004A            00033 LTR_J   EQU b'01001010' 
  0000004B            00034 LTR_K   EQU b'01001011'
  0000004C            00035 LTR_L   EQU b'01001100'
  0000004D            00036 LTR_M   EQU b'01001101' 
  0000004E            00037 LTR_N   EQU b'01001110'
  0000004F            00038 LTR_O   EQU b'01001111' 
  00000050            00039 LTR_P   EQU b'01010000' 
  00000051            00040 LTR_Q   EQU b'01010001' 
MPASM 5.83  /HOME/MALEK/MPLABXPROJECTS/MEMOR   4-12-2019  18:31:13         PAGE  2
LCD

LOC  OBJECT CODE     LINE SOURCE TEXT
  VALUE

  00000052            00041 LTR_R   EQU b'01010010'
  00000053            00042 LTR_S   EQU b'01010011'         
  00000054            00043 LTR_T   EQU b'01010100'         
  00000055            00044 LTR_U   EQU b'01010101'         
  00000056            00045 LTR_V   EQU b'01010110'         
  00000057            00046 LTR_W   EQU b'01010111' 
  00000058            00047 LTR_X   EQU b'01011000'         
  00000059            00048 LTR_Y   EQU b'01011001'
  0000005A            00049 LTR_Z   EQU b'01011010'
  00000030            00050 LTR_0   EQU b'00110000'
  00000030            00051 LTR_1   EQU b'00110000'
  00000030            00052 LTR_2   EQU b'00110000'
  00000030            00053 LTR_3   EQU b'00110000'
  00000030            00054 LTR_4   EQU b'00110000'
  00000030            00055 LTR_5   EQU b'00110000'
  00000030            00056 LTR_6   EQU b'00110000'
  00000030            00057 LTR_7   EQU b'00110000'
  00000030            00058 LTR_8   EQU b'00110000'
  00000030            00059 LTR_9   EQU b'00110000'
  0000002A            00060 LTR_ASTERISK    EQU b'00101010'
  000000A0            00061 LTR_SPACE   EQU b'10100000'
                      00062         
                      00063         ORG     0x0
0000   2???           00064         GOTO    MAIN
                      00065         ORG     0x04
0004   180B           00066         BTFSC   INTCON, d'0'
0005   2???           00067         GOTO RB4_INT
                      00068 
                      00069         
                      00070 ; Register Configurations
0006   0185           00071 MAIN    CLRF    PORTA
0007   1683           00072         BSF     STATUS,RP0
0008   30F0           00073         MOVLW   b'11110000' ; Set   RB[7:4] as inputs, the rest are outputs
Message[302]: Register in operand not in bank 0.  Ensure that bank bits are correct.
0009   0086           00074         MOVWF   TRISB
                      00075         
Message[302]: Register in operand not in bank 0.  Ensure that bank bits are correct.
000A   0185           00076         CLRF    TRISA       ; Set all pins of PORTA as outputs
000B   1283           00077         BCF     STATUS,RP0
                      00078         
000C   3088           00079         MOVLW   b'10001000' ; Properly setup the interrupts. Only GIE and RBIF should be set.
000D   008B           00080         MOVWF   INTCON
                      00081         
                      00082 
000E   300B           00083 INDIRECT        MOVLW   d'11'
000F   008D           00084         MOVWF   COUNT2
0010   3020           00085         MOVLW   H'20'
0011   0084           00086         MOVWF   FSR
0012   0B8D           00087 LOOPX   DECFSZ  COUNT2,F
0013   2???           00088         GOTO LOOPY
0014   2???           00089         GOTO FINISH
0015   080D           00090 LOOPY   MOVF    COUNT2,W
0016   0080           00091         MOVWF   INDF
MPASM 5.83  /HOME/MALEK/MPLABXPROJECTS/MEMOR   4-12-2019  18:31:13         PAGE  3
LCD

LOC  OBJECT CODE     LINE SOURCE TEXT
  VALUE

Message[305]: Using default destination of 1 (file).
0017   0A84           00092         INCF    FSR
0018   2???           00093         GOTO    LOOPX
0019                  00094 FINISH
                      00095 
                      00096 
                      00097 ; Initialize the LCD
0019   2???           00098 INIT    CALL    DELAYFMS
001A   3002           00099         MOVLW   b'00010'
001B   0085           00100         MOVWF   PORTA
001C   2???           00101         CALL    ET
001D   3002           00102         MOVLW   b'00010'
001E   0085           00103         MOVWF   PORTA
001F   2???           00104         CALL    ET
0020   300A           00105         MOVLW   b'01010'
0021   0085           00106         MOVWF   PORTA
0022   2???           00107         CALL    ET
                      00108         
0023   3000           00109         MOVLW   b'00000'
0024   0085           00110         MOVWF   PORTA
0025   2???           00111         CALL    ET
0026   300C           00112         MOVLW   b'01100'
0027   0085           00113         MOVWF   PORTA
0028   2???           00114         CALL    ET
                      00115         
0029   3000           00116         MOVLW   b'00000'
002A   0085           00117         MOVWF   PORTA
002B   2???           00118         CALL    ET
002C   3001           00119         MOVLW   b'00001'
002D   0085           00120         MOVWF   PORTA
002E   2???           00121         CALL    ET
                      00122 
002F   3000           00123         MOVLW   b'00000'
0030   0085           00124         MOVWF   PORTA
0031   2???           00125         CALL    ET
0032   3006           00126         MOVLW   b'00110'
0033   0085           00127         MOVWF   PORTA
0034   2???           00128         CALL    ET
                      00129 
                      00130                         
0035   3004           00131 WELCOME_SCREEN  MOVLW   b'00000100' ; Move the cursor to 0x04
0036   0092           00132         MOVWF   CURSOR_POS
                      00133 
0037   2???           00134         CALL    PRINT_M
0038   2???           00135         CALL    PRINT_E
0039   2???           00136         CALL    PRINT_M
003A   2???           00137         CALL    PRINT_O
003B   2???           00138         CALL    PRINT_R
003C   2???           00139         CALL    PRINT_Y
                      00140         
003D   300A           00141         MOVLW   b'00001010' ; Move the cursor to 0x0A (Column 10)
003E   0092           00142         MOVWF   CURSOR_POS
                      00143         
MPASM 5.83  /HOME/MALEK/MPLABXPROJECTS/MEMOR   4-12-2019  18:31:13         PAGE  4
LCD

LOC  OBJECT CODE     LINE SOURCE TEXT
  VALUE

003F   2???           00144         CALL    PRINT_G
0040   2???           00145         CALL    PRINT_A
0041   2???           00146         CALL    PRINT_M
0042   2???           00147         CALL    PRINT_E
                      00148         
0043   2???           00149         CALL    DELAYS  ; TODO: Implement some longer delay (4/5 seconds maybe?)
                      00150 
0044   2???           00151 MAIN_MENU   CALL    CLEAR_SCREEN
0045   2???           00152         CALL    PRINT_M
0046   2???           00153         CALL    PRINT_O
0047   2???           00154         CALL    PRINT_D
0048   2???           00155         CALL    PRINT_E
                      00156         
0049   3002           00157         MOVLW   d'2'   ; Move the cursor two units to the right
004A   0792           00158         ADDWF   CURSOR_POS, 1
                      00159         
004B   2???           00160         CALL    PRINT_ASTERISK
004C   2???           00161         CALL    PRINT_1
                      00162         
004D   3002           00163         MOVLW   d'2'   ; Move the cursor two units to the right
004E   0792           00164         ADDWF   CURSOR_POS, 1
                      00165         
004F   2???           00166         CALL    PRINT_2
                      00167         
0050   3002           00168         MOVLW   d'2'   ; Move the cursor two units to the right
0051   0792           00169         ADDWF   CURSOR_POS, 1
                      00170         
0052   2???           00171         CALL    PRINT_3
                      00172         
                      00173 
0053   2???           00174 INF     GOTO    INF
                      00175         
                      00176         
                      00177 ; ****************************************************************          LCD INTERFACING         ****
                            *******************************************************************
                      00178 
                      00179 ; CLEAR_SCREEN: Erases all characters on the screen and sets the cursor back to row 0, col 0
0054   3000           00180 CLEAR_SCREEN    MOVLW   b'00000'    ; Send to the LCD "00 0000 0001", which is the instruction to clear 
                            the display.
0055   0085           00181         MOVWF   PORTA
0056   2???           00182         CALL ET
                      00183         
0057   3001           00184         MOVLW   b'00001'
0058   0085           00185         MOVWF   PORTA
0059   2???           00186         CALL ET
                      00187         
005A   0008           00188         RETURN
                      00189         
                      00190 ; ET: Writes data to LCD.
005B   1486           00191 ET      BSF     PORTB,1
005C   0000           00192         NOP
005D   1086           00193         BCF     PORTB,1
005E   2???           00194         CALL DELAYFMS
MPASM 5.83  /HOME/MALEK/MPLABXPROJECTS/MEMOR   4-12-2019  18:31:13         PAGE  5
LCD

LOC  OBJECT CODE     LINE SOURCE TEXT
  VALUE

005F   0008           00195         RETURN 
                      00196 
                      00197         
                      00198 ;   WRITE_CHAR: Automatically writes a character at address specified in CURSOR_POS and increments CURSO
                            R_POS in anticipation of the next character
                      00199         
0060   0093           00200 WRITE_CHAR      MOVWF   CHAR_CODE   ; In order to save lines, the W register is initially assumed to con
                            tain the character code. Load it into CHAR_CODE register.
0061   1A12           00201         BTFSC   CURSOR_POS,4    ; If line (encoded as bit 4) is not 0, i.e. line is 1 then specify the f
                            irst bit in the address as a 4.
0062   300C           00202         MOVLW   b'01100'
0063   1E12           00203         BTFSS   CURSOR_POS,4            ; If line (encoded as bit 4) is not 1, i.e. line is 0 then speci
                            fy the first bit in the address as a 0.
0064   3008           00204         MOVLW   b'01000'
0065   0085           00205         MOVWF   PORTA
0066   2???           00206         CALL ET
                      00207         
0067   0812           00208         MOVF    CURSOR_POS,0
0068   390F           00209         ANDLW   h'0f'       ; Mask the first 4 bits (which correspond to the column number)
0069   0085           00210         MOVWF   PORTA
006A   2???           00211         CALL ET
                      00212         
                      00213         ;   Handling character code: A character code is an 8-bit number representing a printable charac
                            ter. To print it to the screen, we should mask the upper four
                      00214         ;   bits, shift left 4 times, set the first bit to 1 and write to the LCD. Then, mask the lower 
                            four bits, set the first bit to 1 and write to the LCD.
                      00215         
006B   0E13           00216         SWAPF   CHAR_CODE, 0 ; Move contents of CHAR_CODE to W, swapping the nibbles.
006C   390F           00217         ANDLW   h'0f'        ; Mask the first 4 bits (which are now in the lower bits after swapping)
006D   3E10           00218         ADDLW   h'10'        ; Set the first bit of the W reg (adding 16)
                      00219         
006E   0085           00220         MOVWF   PORTA
006F   2???           00221         CALL ET
                      00222         
0070   0813           00223         MOVF    CHAR_CODE, 0 ; Move contents of CHAR_CODE register to W register
0071   390F           00224         ANDLW   h'0f'        ; Mask the last 4 bits
0072   3E10           00225         ADDLW   h'10'        ; Set the first bit of the W reg (adding 16)
                      00226         
0073   0085           00227         MOVWF   PORTA
0074   2???           00228         CALL ET
0075   0A92           00229         INCF    CURSOR_POS,1    ; Increment the column number, equivalent to moving the cursor to await 
                            the next character.
0076   0008           00230         RETURN
                      00231         
                      00232         
                      00233 ; One-liners to print specific characters (feel free to abuse)
                      00234         
0077   3041           00235 PRINT_A MOVLW   LTR_A
0078   2???           00236         CALL WRITE_CHAR
0079   0008           00237         RETURN
                      00238         
007A   3044           00239 PRINT_D MOVLW   LTR_D
007B   2???           00240         CALL WRITE_CHAR
MPASM 5.83  /HOME/MALEK/MPLABXPROJECTS/MEMOR   4-12-2019  18:31:13         PAGE  6
LCD

LOC  OBJECT CODE     LINE SOURCE TEXT
  VALUE

007C   0008           00241         RETURN
                      00242         
007D   3045           00243 PRINT_E MOVLW   LTR_E
007E   2???           00244         CALL WRITE_CHAR
007F   0008           00245         RETURN
                      00246 
0080   3047           00247 PRINT_G MOVLW   LTR_G
0081   2???           00248         CALL WRITE_CHAR
0082   0008           00249         RETURN
                      00250         
0083   304D           00251 PRINT_M MOVLW   LTR_M
0084   2???           00252         CALL WRITE_CHAR
0085   0008           00253         RETURN
                      00254 
0086   304F           00255 PRINT_O MOVLW   LTR_O
0087   2???           00256         CALL WRITE_CHAR
0088   0008           00257         RETURN
                      00258 
0089   3052           00259 PRINT_R MOVLW   LTR_R
008A   2???           00260         CALL WRITE_CHAR
008B   0008           00261         RETURN
                      00262         
008C   304D           00263 PRINT_Y MOVLW   LTR_M
008D   2???           00264         CALL WRITE_CHAR
008E   0008           00265         RETURN
                      00266         
008F   302A           00267 PRINT_ASTERISK  MOVLW   LTR_ASTERISK
0090   2???           00268         CALL WRITE_CHAR
0091   0008           00269         RETURN
                      00270         
0092   3030           00271 PRINT_1 MOVLW   LTR_1
0093   2???           00272         CALL WRITE_CHAR
0094   0008           00273         RETURN
                      00274 
0095   3030           00275 PRINT_2 MOVLW   LTR_2
0096   2???           00276         CALL WRITE_CHAR
0097   0008           00277         RETURN
                      00278         
0098   3030           00279 PRINT_3 MOVLW   LTR_3
0099   2???           00280         CALL WRITE_CHAR
009A   0008           00281         RETURN
                      00282         
                      00283 ; ***********************************************************************   INTERRUPTS      ************
                            **********************************************************
                      00284         
                      00285 ; NOTE: Should all of these be BTFSS?
                      00286         
009B   2???           00287 RB4_INT CALL    DELAYFMS ;  Debounce
009C   1A06           00288         BTFSC   PORTB,LEFT_BTN
009D   0000           00289         NOP ; TODO: Implement functionality
009E   1A86           00290         BTFSC   PORTB,RIGHT_BTN
009F   0000           00291         NOP ; TODO: Implement functionality
00A0   1B06           00292         BTFSC   PORTB,UP_DOWN_BTN
MPASM 5.83  /HOME/MALEK/MPLABXPROJECTS/MEMOR   4-12-2019  18:31:13         PAGE  7
LCD

LOC  OBJECT CODE     LINE SOURCE TEXT
  VALUE

00A1   2???           00293         CALL    HANDLE_UP_DOWN
00A2   1B86           00294         BTFSC   PORTB,CONFIRM_BTN
00A3   0000           00295         NOP ; TODO: Implement functionality
00A4   100B           00296         BCF INTCON, 0
00A5   0009           00297         RETFIE
                      00298         
00A6                  00299 HANDLE_UP_DOWN  ; Unless you're in the Main Menu, toggle the row that the cursor is at
00A6   1814           00300         BTFSC   FLAG_REG, 0 ; Check if the Main Menu flag is set, skip accordingly
00A7   2???           00301         GOTO    SKIP_HANDLE_UP_DOWN
00A8   3010           00302         MOVLW   b'00010000'
00A9   0692           00303         XORWF   CURSOR_POS, 1
00AA   0008           00304 SKIP_HANDLE_UP_DOWN  RETURN     
                      00305         
                      00306         
                      00307 ; ***********************************************************************       DELAYS      ************
                            **********************************************************
                      00308         
                      00309 ; DELAYS: Causes a 1s delay, uses registers COUNT4, COUNT5 & COUNT6.
                      00310         
00AB   3000           00311 DELAYS  MOVLW   H'00'
00AC   0091           00312         MOVWF   COUNT6
00AD   0090           00313         MOVWF   COUNT5
00AE   3005           00314         MOVLW   0x5
00AF   008F           00315         MOVWF   COUNT4
                      00316         
00B0   0F91           00317 LOOP    INCFSZ  COUNT6,F
00B1   2???           00318         GOTO    LOOP
00B2   0F90           00319         INCFSZ  COUNT5,F
00B3   2???           00320         GOTO    LOOP
00B4   0B8F           00321         DECFSZ  COUNT4,F
00B5   2???           00322         GOTO    LOOP
00B6   0008           00323         RETURN
                      00324         
                      00325 ; DELAYFMS: Causes a 40 ms delay, uses register COUNT1.
                      00326         
00B7   3025           00327 DELAYFMS        MOVLW   d'37'
00B8   008C           00328         MOVWF   COUNT1
00B9   2???           00329 LOOP3   CALL    DELAYMS
00BA   0B8C           00330         DECFSZ  COUNT1,F
00BB   2???           00331         GOTO    LOOP3
00BC   0008           00332         RETURN
                      00333 
                      00334 ; DELAYMS: Causes a 1 ms delay, uses registers COUNT2 & COUNT 3.
                      00335         
00BD   3000           00336 DELAYMS MOVLW d'0'          
00BE   008D           00337         MOVWF   COUNT2
00BF   304C           00338         MOVLW   d'76'
00C0   008E           00339         MOVWF   COUNT3
00C1   0F8D           00340 LOOP1   INCFSZ  COUNT2,F
00C2   2???           00341         GOTO    LOOP1
00C3   0000           00342 LOOP2   NOP     
00C4   0B8E           00343         DECFSZ  COUNT3,F
00C5   2???           00344         GOTO LOOP2
MPASM 5.83  /HOME/MALEK/MPLABXPROJECTS/MEMOR   4-12-2019  18:31:13         PAGE  8
LCD

LOC  OBJECT CODE     LINE SOURCE TEXT
  VALUE

00C6   0008           00345         RETURN
                      00346 
                      00347         END
MPASM 5.83  /HOME/MALEK/MPLABXPROJECTS/MEMOR   4-12-2019  18:31:13         PAGE  9
LCD

SYMBOL TABLE
  LABEL                             VALUE 

C                                 00000000
CHAR_CODE                         00000013
CLEAR_SCREEN                      00000054
CONFIRM_BTN                       00000007
COUNT1                            0000000C
COUNT2                            0000000D
COUNT3                            0000000E
COUNT4                            0000000F
COUNT5                            00000010
COUNT6                            00000011
CURSOR_POS                        00000012
DC                                00000001
DELAYFMS                          000000B7
DELAYMS                           000000BD
DELAYS                            000000AB
EEADR                             00000009
EECON1                            00000088
EECON2                            00000089
EEDATA                            00000008
EEIE                              00000006
EEIF                              00000004
ET                                0000005B
F                                 00000001
FINISH                            00000019
FLAG_REG                          00000014
FSR                               00000004
GIE                               00000007
HANDLE_UP_DOWN                    000000A6
INDF                              00000000
INDIRECT                          0000000E
INF                               00000053
INIT                              00000019
INTCON                            0000000B
INTE                              00000004
INTEDG                            00000006
INTF                              00000001
IRP                               00000007
LEFT_BTN                          00000004
LOOP                              000000B0
LOOP1                             000000C1
LOOP2                             000000C3
LOOP3                             000000B9
LOOPX                             00000012
LOOPY                             00000015
LTR_0                             00000030
LTR_1                             00000030
LTR_2                             00000030
LTR_3                             00000030
LTR_4                             00000030
LTR_5                             00000030
LTR_6                             00000030
LTR_7                             00000030
LTR_8                             00000030
MPASM 5.83  /HOME/MALEK/MPLABXPROJECTS/MEMOR   4-12-2019  18:31:13         PAGE 10
LCD

SYMBOL TABLE
  LABEL                             VALUE 

LTR_9                             00000030
LTR_A                             00000041
LTR_ASTERISK                      0000002A
LTR_B                             00000042
LTR_C                             00000043
LTR_D                             00000044
LTR_E                             00000045
LTR_F                             00000046
LTR_G                             00000047
LTR_H                             00000048
LTR_I                             00000049
LTR_J                             0000004A
LTR_K                             0000004B
LTR_L                             0000004C
LTR_M                             0000004D
LTR_N                             0000004E
LTR_O                             0000004F
LTR_P                             00000050
LTR_Q                             00000051
LTR_R                             00000052
LTR_S                             00000053
LTR_SPACE                         000000A0
LTR_T                             00000054
LTR_U                             00000055
LTR_V                             00000056
LTR_W                             00000057
LTR_X                             00000058
LTR_Y                             00000059
LTR_Z                             0000005A
MAIN                              00000006
MAIN_MENU                         00000044
NOT_PD                            00000003
NOT_RBPU                          00000007
NOT_TO                            00000004
OPTION_REG                        00000081
PCL                               00000002
PCLATH                            0000000A
PORTA                             00000005
PORTB                             00000006
PRINT_1                           00000092
PRINT_2                           00000095
PRINT_3                           00000098
PRINT_A                           00000077
PRINT_ASTERISK                    0000008F
PRINT_D                           0000007A
PRINT_E                           0000007D
PRINT_G                           00000080
PRINT_M                           00000083
PRINT_O                           00000086
PRINT_R                           00000089
PRINT_Y                           0000008C
PS0                               00000000
PS1                               00000001
MPASM 5.83  /HOME/MALEK/MPLABXPROJECTS/MEMOR   4-12-2019  18:31:13         PAGE 11
LCD

SYMBOL TABLE
  LABEL                             VALUE 

PS2                               00000002
PSA                               00000003
RA0                               00000000
RA1                               00000001
RA2                               00000002
RA3                               00000003
RA4                               00000004
RB0                               00000000
RB1                               00000001
RB2                               00000002
RB3                               00000003
RB4                               00000004
RB4_INT                           0000009B
RB5                               00000005
RB6                               00000006
RB7                               00000007
RBIE                              00000003
RBIF                              00000000
RD                                00000000
RIGHT_BTN                         00000005
RP0                               00000005
RP1                               00000006
SKIP_HANDLE_UP_DOWN               000000AA
STATUS                            00000003
T0CS                              00000005
T0IE                              00000005
T0IF                              00000002
T0SE                              00000004
TMR0                              00000001
TMR0IE                            00000005
TMR0IF                            00000002
TRISA                             00000085
TRISA0                            00000000
TRISA1                            00000001
TRISA2                            00000002
TRISA3                            00000003
TRISA4                            00000004
TRISB                             00000086
TRISB0                            00000000
TRISB1                            00000001
TRISB2                            00000002
TRISB3                            00000003
TRISB4                            00000004
TRISB5                            00000005
TRISB6                            00000006
TRISB7                            00000007
UP_DOWN_BTN                       00000006
W                                 00000000
WELCOME_SCREEN                    00000035
WR                                00000001
WREN                              00000002
WRERR                             00000003
WRITE_CHAR                        00000060
MPASM 5.83  /HOME/MALEK/MPLABXPROJECTS/MEMOR   4-12-2019  18:31:13         PAGE 12
LCD

SYMBOL TABLE
  LABEL                             VALUE 

Z                                 00000002
_CONFIG                           00002007
_CP_OFF                           00003FFF
_CP_ON                            0000000F
_DEVID1                           00002006
_FOSC_EXTRC                       00003FFF
_FOSC_HS                          00003FFE
_FOSC_LP                          00003FFC
_FOSC_XT                          00003FFD
_HS_OSC                           00003FFE
_IDLOC0                           00002000
_IDLOC1                           00002001
_IDLOC2                           00002002
_IDLOC3                           00002003
_LP_OSC                           00003FFC
_PWRTE_OFF                        00003FFF
_PWRTE_ON                         00003FF7
_RC_OSC                           00003FFF
_WDTE_OFF                         00003FFB
_WDTE_ON                          00003FFF
_WDT_OFF                          00003FFB
_WDT_ON                           00003FFF
_XT_OSC                           00003FFD
__16F84A                          00000001

Errors   :     0
Warnings :     0 reported,     0 suppressed
Messages :     3 reported,     0 suppressed

