MPASM 5.83  /HOME/MALEK/MPLABXPROJECTS/MEMOR   4-15-2019  18:49:03         PAGE  1


LOC  OBJECT CODE     LINE SOURCE TEXT
  VALUE

                      00001     title       "LCD"
                      00002     list        p=16f84A
                      00003     radix       hex
                      00004     include "p16f84a.inc"
                      00001         LIST
                      00002 
                      00003 ;==========================================================================
                      00004 ; Build date : Jan 21 2019
                      00005 ;  MPASM PIC16F84A processor include
                      00006 ; 
                      00007 ;  (c) Copyright 1999-2019 Microchip Technology, All rights reserved
                      00008 ;==========================================================================
                      00009 
                      00209         LIST
                      00005 
  0000000C            00006 COUNT1  EQU     d'12'
  0000000D            00007 COUNT2  EQU     d'13'
  0000000E            00008 COUNT3  EQU     d'14'
  0000000F            00009 COUNT4  EQU     d'15'
  00000010            00010 COUNT5  EQU     d'16'
  00000011            00011 COUNT6  EQU     d'17'
                      00012 
  00000012            00013 CURSOR_POS  EQU d'18' ; Register stores detail about the cursor's current position. Bits[3:0] specify co
                            lumn number, where as bit 4 specifies the row.
                      00014                       ; Since there are 16 columns and 2 rows, such an encoding is guaranteed to span al
                            l cells on the LCD.
  00000013            00015 CHAR_CODE   EQU d'19'
                      00016 
  00000014            00017 FLAG_REG    EQU d'20' ; Register containing some flags to be used within the program. Structure: [-,-,-,
                            -,-,-,-,Main Menu Flag]
                      00018    
  00000004            00019 LEFT_BTN    EQU d'4'
  00000005            00020 RIGHT_BTN   EQU d'5'
  00000006            00021 UP_DOWN_BTN EQU d'6'
  00000007            00022 CONFIRM_BTN EQU d'7'
  000000DB            00023 LTR_BOX   EQU b'11011011'
                      00024  
  00000041            00025 LTR_A   EQU b'01000001'
  00000042            00026 LTR_B   EQU b'01000010' 
  00000043            00027 LTR_C   EQU b'01000011' 
  00000044            00028 LTR_D   EQU b'01000100'
  00000045            00029 LTR_E   EQU b'01000101'
  00000046            00030 LTR_F   EQU b'01000110'
  00000047            00031 LTR_G   EQU b'01000111' 
  00000048            00032 LTR_H   EQU b'01001000'
  00000049            00033 LTR_I   EQU b'01001001' 
  0000004A            00034 LTR_J   EQU b'01001010' 
  0000004B            00035 LTR_K   EQU b'01001011'
  0000004C            00036 LTR_L   EQU b'01001100'
  0000004D            00037 LTR_M   EQU b'01001101' 
  0000004E            00038 LTR_N   EQU b'01001110'
  0000004F            00039 LTR_O   EQU b'01001111' 
  00000050            00040 LTR_P   EQU b'01010000' 
MPASM 5.83  /HOME/MALEK/MPLABXPROJECTS/MEMOR   4-15-2019  18:49:03         PAGE  2
LCD

LOC  OBJECT CODE     LINE SOURCE TEXT
  VALUE

  00000051            00041 LTR_Q   EQU b'01010001' 
  00000052            00042 LTR_R   EQU b'01010010'
  00000053            00043 LTR_S   EQU b'01010011'         
  00000054            00044 LTR_T   EQU b'01010100'         
  00000055            00045 LTR_U   EQU b'01010101'         
  00000056            00046 LTR_V   EQU b'01010110'         
  00000057            00047 LTR_W   EQU b'01010111' 
  00000058            00048 LTR_X   EQU b'01011000'         
  00000059            00049 LTR_Y   EQU b'01011001'
  0000005A            00050 LTR_Z   EQU b'01011010'
  00000030            00051 LTR_0   EQU b'00110000'
  00000030            00052 LTR_1   EQU b'00110000'
  00000030            00053 LTR_2   EQU b'00110000'
  00000030            00054 LTR_3   EQU b'00110000'
  00000030            00055 LTR_4   EQU b'00110000'
  00000030            00056 LTR_5   EQU b'00110000'
  00000030            00057 LTR_6   EQU b'00110000'
  00000030            00058 LTR_7   EQU b'00110000'
  00000030            00059 LTR_8   EQU b'00110000'
  00000030            00060 LTR_9   EQU b'00110000'
  0000002A            00061 LTR_ASTERISK    EQU b'00101010'
  000000A0            00062 LTR_SPACE   EQU b'10100000'
                      00063         
  00000034            00064 CELL_11 EQU d'52'
  00000035            00065 CELL_12 EQU d'53'
  00000036            00066 CELL_13 EQU d'54'
  00000037            00067 CELL_14 EQU d'55'
  00000038            00068 CELL_15 EQU d'56'
  00000039            00069 CELL_16 EQU d'57'
                      00070 
  0000003A            00071 CELL_21 EQU d'58'
  0000003B            00072 CELL_22 EQU d'59'
  0000003C            00073 CELL_23 EQU d'60'
  0000003D            00074 CELL_24 EQU d'61'
  0000003E            00075 CELL_25 EQU d'62'
  0000003F            00076 CELL_26 EQU d'63'   
                      00077 
                      00078         ORG     0x0
0000   2???           00079         GOTO    MAIN
                      00080         ORG     0x04
0004   180B           00081         BTFSC   INTCON, d'0'
0005   2???           00082         GOTO RB4_INT
                      00083 
                      00084         
                      00085 ; Register Configurations
0006   0185           00086 MAIN    CLRF    PORTA
0007   1683           00087         BSF     STATUS,RP0
0008   30F0           00088         MOVLW   b'11110000' ; Set   RB[7:4] as inputs, the rest are outputs
Message[302]: Register in operand not in bank 0.  Ensure that bank bits are correct.
0009   0086           00089         MOVWF   TRISB
                      00090         
Message[302]: Register in operand not in bank 0.  Ensure that bank bits are correct.
000A   0185           00091         CLRF    TRISA       ; Set all pins of PORTA as outputs
MPASM 5.83  /HOME/MALEK/MPLABXPROJECTS/MEMOR   4-15-2019  18:49:03         PAGE  3
LCD

LOC  OBJECT CODE     LINE SOURCE TEXT
  VALUE

000B   1283           00092         BCF     STATUS,RP0
                      00093         
000C   3088           00094         MOVLW   b'10001000' ; Properly setup the interrupts. Only GIE and RBIF should be set.
000D   008B           00095         MOVWF   INTCON
                      00096         
                      00097 
000E   300B           00098 INDIRECT        MOVLW   d'11'
000F   008D           00099         MOVWF   COUNT2
0010   3020           00100         MOVLW   H'20'
0011   0084           00101         MOVWF   FSR
0012   0B8D           00102 LOOPX   DECFSZ  COUNT2,F
0013   2???           00103         GOTO LOOPY
0014   2???           00104         GOTO FINISH
0015   080D           00105 LOOPY   MOVF    COUNT2,W
0016   0080           00106         MOVWF   INDF
Message[305]: Using default destination of 1 (file).
0017   0A84           00107         INCF    FSR
0018   2???           00108         GOTO    LOOPX
0019                  00109 FINISH
                      00110 
                      00111 
                      00112 ; Initialize the LCD
0019   2???           00113 INIT    CALL    DELAYFMS
001A   3002           00114         MOVLW   b'00010'
001B   0085           00115         MOVWF   PORTA
001C   2???           00116         CALL    ET
001D   3002           00117         MOVLW   b'00010'
001E   0085           00118         MOVWF   PORTA
001F   2???           00119         CALL    ET
0020   300A           00120         MOVLW   b'01010'
0021   0085           00121         MOVWF   PORTA
0022   2???           00122         CALL    ET
                      00123         
0023   3000           00124         MOVLW   b'00000'
0024   0085           00125         MOVWF   PORTA
0025   2???           00126         CALL    ET
0026   300C           00127         MOVLW   b'01100'
0027   0085           00128         MOVWF   PORTA
0028   2???           00129         CALL    ET
                      00130         
0029   3000           00131         MOVLW   b'00000'
002A   0085           00132         MOVWF   PORTA
002B   2???           00133         CALL    ET
002C   3001           00134         MOVLW   b'00001'
002D   0085           00135         MOVWF   PORTA
002E   2???           00136         CALL    ET
                      00137 
002F   3000           00138         MOVLW   b'00000'
0030   0085           00139         MOVWF   PORTA
0031   2???           00140         CALL    ET
0032   3006           00141         MOVLW   b'00110'
0033   0085           00142         MOVWF   PORTA
0034   2???           00143         CALL    ET
MPASM 5.83  /HOME/MALEK/MPLABXPROJECTS/MEMOR   4-15-2019  18:49:03         PAGE  4
LCD

LOC  OBJECT CODE     LINE SOURCE TEXT
  VALUE

                      00144 
                      00145                         
0035   3004           00146 WELCOME_SCREEN  MOVLW   b'00000100' ; Move the cursor to 0x04
0036   0092           00147         MOVWF   CURSOR_POS
                      00148 
0037   2???           00149         CALL    PRINT_M
0038   2???           00150         CALL    PRINT_E
0039   2???           00151         CALL    PRINT_M
003A   2???           00152         CALL    PRINT_O
003B   2???           00153         CALL    PRINT_R
003C   2???           00154         CALL    PRINT_Y
                      00155         
003D   300A           00156         MOVLW   b'00001010' ; Move the cursor to 0x0A (Column 10)
003E   0092           00157         MOVWF   CURSOR_POS
                      00158         
003F   2???           00159         CALL    PRINT_G
0040   2???           00160         CALL    PRINT_A
0041   2???           00161         CALL    PRINT_M
0042   2???           00162         CALL    PRINT_E
                      00163         
0043   2???           00164         CALL    DELAYS  ; TODO: Implement some longer delay (4/5 seconds maybe?)
                      00165 
0044   2???           00166 MAIN_MENU   CALL    CLEAR_SCREEN
0045   2???           00167         CALL    PRINT_M
0046   2???           00168         CALL    PRINT_O
0047   2???           00169         CALL    PRINT_D
0048   2???           00170         CALL    PRINT_E
                      00171         
0049   3002           00172         MOVLW   d'2'   ; Move the cursor two units to the right
004A   0792           00173         ADDWF   CURSOR_POS, 1
                      00174         
004B   2???           00175         CALL    PRINT_ASTERISK
004C   2???           00176         CALL    PRINT_1
                      00177         
004D   3002           00178         MOVLW   d'2'   ; Move the cursor two units to the right
004E   0792           00179         ADDWF   CURSOR_POS, 1
                      00180         
004F   2???           00181         CALL    PRINT_2
                      00182         
0050   3002           00183         MOVLW   d'2'   ; Move the cursor two units to the right
0051   0792           00184         ADDWF   CURSOR_POS, 1
                      00185         
0052   2???           00186         CALL    PRINT_3
                      00187         
                      00188 
0053   1894           00189 INF BTFSC   FLAG_REG,1
0054   2???           00190     GOTO  MODE2_OR_3
0055   2???           00191     GOTO  MODE1_OR_INF
                      00192 
0056   1814           00193 MODE2_OR_3 BTFSC    FLAG_REG,0
0057   2???           00194     GOTO  MODE3
0058   2???           00195     GOTO  MODE2
                      00196 
MPASM 5.83  /HOME/MALEK/MPLABXPROJECTS/MEMOR   4-15-2019  18:49:03         PAGE  5
LCD

LOC  OBJECT CODE     LINE SOURCE TEXT
  VALUE

0059   1814           00197 MODE1_OR_INF BTFSC  FLAG_REG,0
005A   2???           00198     GOTO  MODE1
005B   2???           00199     GOTO  INF
                      00200 
                      00201 
005C   2???           00202 MODE1 CALL  POPULATE_TABLE
005D   2???           00203     CALL  HIDE_TABLE
005E   2???           00204 LOOP_M1 GOTO    LOOP_M1
                      00205 
                      00206 
005F   2???           00207 MODE2 CALL  POPULATE_TABLE
0060   2???           00208     CALL  HIDE_TABLE
0061   2???           00209 LOOP_M2 GOTO    LOOP_M2
                      00210 
                      00211 
0062   2???           00212 MODE3 CALL  POPULATE_TABLE
0063   2???           00213     CALL  HIDE_TABLE
0064   2???           00214 LOOP_M3 GOTO    LOOP_M3
                      00215         
                      00216         
0065   3041           00217 POPULATE_TABLE MOVLW    LTR_A
0066   00B4           00218     MOVWF  CELL_11
0067   3041           00219     MOVLW  LTR_A
0068   00B5           00220     MOVWF  CELL_12
0069   3042           00221     MOVLW  LTR_B
006A   00B6           00222     MOVWF  CELL_13
006B   3042           00223     MOVLW  LTR_B
006C   00B7           00224     MOVWF  CELL_14
006D   3043           00225     MOVLW  LTR_C
006E   00B8           00226     MOVWF  CELL_15
006F   3043           00227     MOVLW  LTR_C
0070   00B9           00228     MOVWF  CELL_16
0071   3044           00229     MOVLW  LTR_D
0072   00BA           00230     MOVWF  CELL_21
0073   3044           00231     MOVLW  LTR_D
0074   00BB           00232     MOVWF  CELL_22
0075   3045           00233     MOVLW  LTR_E
0076   00BC           00234     MOVWF  CELL_23
0077   3045           00235     MOVLW  LTR_E
0078   00BD           00236     MOVWF  CELL_24
0079   3046           00237     MOVLW  LTR_F
007A   00BE           00238     MOVWF  CELL_25
007B   3046           00239     MOVLW  LTR_F
007C   00BF           00240     MOVWF  CELL_26
007D   0008           00241     RETURN 
                      00242 
                      00243 
007E   3000           00244 HIDE_TABLE MOVLW    b'00000000' ; Move the cursor to 0x00
007F   0092           00245     MOVWF  CURSOR_POS
                      00246 
0080   2???           00247     CALL  PRINT_BOX
0081   2???           00248     CALL  PRINT_BOX
0082   2???           00249     CALL  PRINT_BOX
MPASM 5.83  /HOME/MALEK/MPLABXPROJECTS/MEMOR   4-15-2019  18:49:03         PAGE  6
LCD

LOC  OBJECT CODE     LINE SOURCE TEXT
  VALUE

0083   2???           00250     CALL  PRINT_BOX
0084   2???           00251     CALL  PRINT_BOX
0085   2???           00252     CALL  PRINT_BOX
                      00253 
0086   3010           00254     MOVLW  b'00010000' ; Move cursor to 0x40
0087   0092           00255     MOVWF  CURSOR_POS
                      00256 
0088   2???           00257     CALL  PRINT_BOX
0089   2???           00258     CALL  PRINT_BOX
008A   2???           00259     CALL  PRINT_BOX
008B   2???           00260     CALL  PRINT_BOX
008C   2???           00261     CALL  PRINT_BOX
008D   2???           00262     CALL  PRINT_BOX
008E   0008           00263     RETURN
                      00264         
                      00265         
                      00266 ; ****************************************************************          LCD INTERFACING         ****
                            *******************************************************************
                      00267 
                      00268 ; CLEAR_SCREEN: Erases all characters on the screen and sets the cursor back to row 0, col 0
008F   3000           00269 CLEAR_SCREEN    MOVLW   b'00000'    ; Send to the LCD "00 0000 0001", which is the instruction to clear 
                            the display.
0090   0085           00270         MOVWF   PORTA
0091   2???           00271         CALL ET
                      00272         
0092   3001           00273         MOVLW   b'00001'
0093   0085           00274         MOVWF   PORTA
0094   2???           00275         CALL ET
                      00276         
0095   0008           00277         RETURN
                      00278         
                      00279 ; ET: Writes data to LCD.
0096   1486           00280 ET      BSF     PORTB,1
0097   0000           00281         NOP
0098   1086           00282         BCF     PORTB,1
0099   2???           00283         CALL DELAYFMS
009A   0008           00284         RETURN 
                      00285 
                      00286         
                      00287 ;   WRITE_CHAR: Automatically writes a character at address specified in CURSOR_POS and increments CURSO
                            R_POS in anticipation of the next character
                      00288         
009B   0093           00289 WRITE_CHAR      MOVWF   CHAR_CODE   ; In order to save lines, the W register is initially assumed to con
                            tain the character code. Load it into CHAR_CODE register.
009C   1A12           00290         BTFSC   CURSOR_POS,4    ; If line (encoded as bit 4) is not 0, i.e. line is 1 then specify the f
                            irst bit in the address as a 4.
009D   300C           00291         MOVLW   b'01100'
009E   1E12           00292         BTFSS   CURSOR_POS,4            ; If line (encoded as bit 4) is not 1, i.e. line is 0 then speci
                            fy the first bit in the address as a 0.
009F   3008           00293         MOVLW   b'01000'
00A0   0085           00294         MOVWF   PORTA
00A1   2???           00295         CALL ET
                      00296         
MPASM 5.83  /HOME/MALEK/MPLABXPROJECTS/MEMOR   4-15-2019  18:49:03         PAGE  7
LCD

LOC  OBJECT CODE     LINE SOURCE TEXT
  VALUE

00A2   0812           00297         MOVF    CURSOR_POS,0
00A3   390F           00298         ANDLW   h'0f'       ; Mask the first 4 bits (which correspond to the column number)
00A4   0085           00299         MOVWF   PORTA
00A5   2???           00300         CALL ET
                      00301         
                      00302         ;   Handling character code: A character code is an 8-bit number representing a printable charac
                            ter. To print it to the screen, we should mask the upper four
                      00303         ;   bits, shift left 4 times, set the first bit to 1 and write to the LCD. Then, mask the lower 
                            four bits, set the first bit to 1 and write to the LCD.
                      00304         
00A6   0E13           00305         SWAPF   CHAR_CODE, 0 ; Move contents of CHAR_CODE to W, swapping the nibbles.
00A7   390F           00306         ANDLW   h'0f'        ; Mask the first 4 bits (which are now in the lower bits after swapping)
00A8   3E10           00307         ADDLW   h'10'        ; Set the first bit of the W reg (adding 16)
                      00308         
00A9   0085           00309         MOVWF   PORTA
00AA   2???           00310         CALL ET
                      00311         
00AB   0813           00312         MOVF    CHAR_CODE, 0 ; Move contents of CHAR_CODE register to W register
00AC   390F           00313         ANDLW   h'0f'        ; Mask the last 4 bits
00AD   3E10           00314         ADDLW   h'10'        ; Set the first bit of the W reg (adding 16)
                      00315         
00AE   0085           00316         MOVWF   PORTA
00AF   2???           00317         CALL ET
00B0   0A92           00318         INCF    CURSOR_POS,1    ; Increment the column number, equivalent to moving the cursor to await 
                            the next character.
00B1   0008           00319         RETURN
                      00320         
                      00321         
                      00322 ; One-liners to print specific characters (feel free to abuse)
                      00323         
00B2   3041           00324 PRINT_A MOVLW   LTR_A
00B3   2???           00325         CALL WRITE_CHAR
00B4   0008           00326         RETURN
                      00327         
00B5   3044           00328 PRINT_D MOVLW   LTR_D
00B6   2???           00329         CALL WRITE_CHAR
00B7   0008           00330         RETURN
                      00331         
00B8   3045           00332 PRINT_E MOVLW   LTR_E
00B9   2???           00333         CALL WRITE_CHAR
00BA   0008           00334         RETURN
                      00335 
00BB   3047           00336 PRINT_G MOVLW   LTR_G
00BC   2???           00337         CALL WRITE_CHAR
00BD   0008           00338         RETURN
                      00339         
00BE   304D           00340 PRINT_M MOVLW   LTR_M
00BF   2???           00341         CALL WRITE_CHAR
00C0   0008           00342         RETURN
                      00343 
00C1   304F           00344 PRINT_O MOVLW   LTR_O
00C2   2???           00345         CALL WRITE_CHAR
00C3   0008           00346         RETURN
MPASM 5.83  /HOME/MALEK/MPLABXPROJECTS/MEMOR   4-15-2019  18:49:03         PAGE  8
LCD

LOC  OBJECT CODE     LINE SOURCE TEXT
  VALUE

                      00347 
00C4   3052           00348 PRINT_R MOVLW   LTR_R
00C5   2???           00349         CALL WRITE_CHAR
00C6   0008           00350         RETURN
                      00351         
00C7   304D           00352 PRINT_Y MOVLW   LTR_M
00C8   2???           00353         CALL WRITE_CHAR
00C9   0008           00354         RETURN
                      00355         
00CA   302A           00356 PRINT_ASTERISK  MOVLW   LTR_ASTERISK
00CB   2???           00357         CALL WRITE_CHAR
00CC   0008           00358         RETURN
                      00359         
00CD   30A0           00360 PRINT_SPACE MOVLW   LTR_SPACE        ; "print space in order to erase the char"
00CE   2???           00361     CALL WRITE_CHAR
00CF   0008           00362     RETURN
                      00363         
00D0   30DB           00364 PRINT_BOX MOVLW LTR_BOX
00D1   2???           00365     CALL  WRITE_CHAR
00D2   0008           00366     RETURN
                      00367         
00D3   3030           00368 PRINT_1 MOVLW   LTR_1
00D4   2???           00369         CALL WRITE_CHAR
00D5   0008           00370         RETURN
                      00371 
00D6   3030           00372 PRINT_2 MOVLW   LTR_2
00D7   2???           00373         CALL WRITE_CHAR
00D8   0008           00374         RETURN
                      00375         
00D9   3030           00376 PRINT_3 MOVLW   LTR_3
00DA   2???           00377         CALL WRITE_CHAR
00DB   0008           00378         RETURN
                      00379         
                      00380 ; ***********************************************************************   INTERRUPTS      ************
                            **********************************************************
                      00381         
                      00382 ; NOTE: Should all of these be BTFSS?
                      00383         
00DC   2???           00384 RB4_INT CALL    DELAYFMS ;  Debounce
00DD   1A06           00385         BTFSC   PORTB,LEFT_BTN
00DE   0000           00386         NOP ; TODO: Implement functionality
00DF   1A86           00387         BTFSC   PORTB,RIGHT_BTN
00E0   0000           00388         NOP ; TODO: Implement functionality
00E1   1B06           00389         BTFSC   PORTB,UP_DOWN_BTN
00E2   2???           00390         CALL    HANDLE_UP_DOWN
00E3   1B86           00391         BTFSC   PORTB,CONFIRM_BTN
00E4   0000           00392         NOP ; TODO: Implement functionality
00E5   100B           00393         BCF INTCON, 0
00E6   0009           00394         RETFIE
                      00395         
00E7                  00396 HANDLE_UP_DOWN  ; Unless you're in the Main Menu, toggle the row that the cursor is at
00E7   1814           00397         BTFSC   FLAG_REG, 0 ; Check if the Main Menu flag is set, skip accordingly
00E8   2???           00398         GOTO    SKIP_HANDLE_UP_DOWN
MPASM 5.83  /HOME/MALEK/MPLABXPROJECTS/MEMOR   4-15-2019  18:49:03         PAGE  9
LCD

LOC  OBJECT CODE     LINE SOURCE TEXT
  VALUE

00E9   3010           00399         MOVLW   b'00010000'
00EA   0692           00400         XORWF   CURSOR_POS, 1
00EB   0008           00401 SKIP_HANDLE_UP_DOWN  RETURN     
                      00402         
                      00403         
                      00404 ; ***********************************************************************       DELAYS      ************
                            **********************************************************
                      00405         
                      00406 ; DELAYS: Causes a 1s delay, uses registers COUNT4, COUNT5 & COUNT6.
                      00407         
00EC   3000           00408 DELAYS  MOVLW   H'00'
00ED   0091           00409         MOVWF   COUNT6
00EE   0090           00410         MOVWF   COUNT5
00EF   3005           00411         MOVLW   0x5
00F0   008F           00412         MOVWF   COUNT4
                      00413         
00F1   0F91           00414 LOOP    INCFSZ  COUNT6,F
00F2   2???           00415         GOTO    LOOP
00F3   0F90           00416         INCFSZ  COUNT5,F
00F4   2???           00417         GOTO    LOOP
00F5   0B8F           00418         DECFSZ  COUNT4,F
00F6   2???           00419         GOTO    LOOP
00F7   0008           00420         RETURN
                      00421         
                      00422 ; DELAYFMS: Causes a 40 ms delay, uses register COUNT1.
                      00423         
00F8   3025           00424 DELAYFMS        MOVLW   d'37'
00F9   008C           00425         MOVWF   COUNT1
00FA   2???           00426 LOOP3   CALL    DELAYMS
00FB   0B8C           00427         DECFSZ  COUNT1,F
00FC   2???           00428         GOTO    LOOP3
00FD   0008           00429         RETURN
                      00430 
                      00431 ; DELAYMS: Causes a 1 ms delay, uses registers COUNT2 & COUNT 3.
                      00432         
00FE   3000           00433 DELAYMS MOVLW d'0'          
00FF   008D           00434         MOVWF   COUNT2
0100   304C           00435         MOVLW   d'76'
0101   008E           00436         MOVWF   COUNT3
0102   0F8D           00437 LOOP1   INCFSZ  COUNT2,F
0103   2???           00438         GOTO    LOOP1
0104   0000           00439 LOOP2   NOP     
0105   0B8E           00440         DECFSZ  COUNT3,F
0106   2???           00441         GOTO LOOP2
0107   0008           00442         RETURN
                      00443 
                      00444         END
MPASM 5.83  /HOME/MALEK/MPLABXPROJECTS/MEMOR   4-15-2019  18:49:03         PAGE 10
LCD

SYMBOL TABLE
  LABEL                             VALUE 

C                                 00000000
CELL_11                           00000034
CELL_12                           00000035
CELL_13                           00000036
CELL_14                           00000037
CELL_15                           00000038
CELL_16                           00000039
CELL_21                           0000003A
CELL_22                           0000003B
CELL_23                           0000003C
CELL_24                           0000003D
CELL_25                           0000003E
CELL_26                           0000003F
CHAR_CODE                         00000013
CLEAR_SCREEN                      0000008F
CONFIRM_BTN                       00000007
COUNT1                            0000000C
COUNT2                            0000000D
COUNT3                            0000000E
COUNT4                            0000000F
COUNT5                            00000010
COUNT6                            00000011
CURSOR_POS                        00000012
DC                                00000001
DELAYFMS                          000000F8
DELAYMS                           000000FE
DELAYS                            000000EC
EEADR                             00000009
EECON1                            00000088
EECON2                            00000089
EEDATA                            00000008
EEIE                              00000006
EEIF                              00000004
ET                                00000096
F                                 00000001
FINISH                            00000019
FLAG_REG                          00000014
FSR                               00000004
GIE                               00000007
HANDLE_UP_DOWN                    000000E7
HIDE_TABLE                        0000007E
INDF                              00000000
INDIRECT                          0000000E
INF                               00000053
INIT                              00000019
INTCON                            0000000B
INTE                              00000004
INTEDG                            00000006
INTF                              00000001
IRP                               00000007
LEFT_BTN                          00000004
LOOP                              000000F1
LOOP1                             00000102
MPASM 5.83  /HOME/MALEK/MPLABXPROJECTS/MEMOR   4-15-2019  18:49:03         PAGE 11
LCD

SYMBOL TABLE
  LABEL                             VALUE 

LOOP2                             00000104
LOOP3                             000000FA
LOOPX                             00000012
LOOPY                             00000015
LOOP_M1                           0000005E
LOOP_M2                           00000061
LOOP_M3                           00000064
LTR_0                             00000030
LTR_1                             00000030
LTR_2                             00000030
LTR_3                             00000030
LTR_4                             00000030
LTR_5                             00000030
LTR_6                             00000030
LTR_7                             00000030
LTR_8                             00000030
LTR_9                             00000030
LTR_A                             00000041
LTR_ASTERISK                      0000002A
LTR_B                             00000042
LTR_BOX                           000000DB
LTR_C                             00000043
LTR_D                             00000044
LTR_E                             00000045
LTR_F                             00000046
LTR_G                             00000047
LTR_H                             00000048
LTR_I                             00000049
LTR_J                             0000004A
LTR_K                             0000004B
LTR_L                             0000004C
LTR_M                             0000004D
LTR_N                             0000004E
LTR_O                             0000004F
LTR_P                             00000050
LTR_Q                             00000051
LTR_R                             00000052
LTR_S                             00000053
LTR_SPACE                         000000A0
LTR_T                             00000054
LTR_U                             00000055
LTR_V                             00000056
LTR_W                             00000057
LTR_X                             00000058
LTR_Y                             00000059
LTR_Z                             0000005A
MAIN                              00000006
MAIN_MENU                         00000044
MODE1                             0000005C
MODE1_OR_INF                      00000059
MODE2                             0000005F
MODE2_OR_3                        00000056
MODE3                             00000062
MPASM 5.83  /HOME/MALEK/MPLABXPROJECTS/MEMOR   4-15-2019  18:49:03         PAGE 12
LCD

SYMBOL TABLE
  LABEL                             VALUE 

NOT_PD                            00000003
NOT_RBPU                          00000007
NOT_TO                            00000004
OPTION_REG                        00000081
PCL                               00000002
PCLATH                            0000000A
POPULATE_TABLE                    00000065
PORTA                             00000005
PORTB                             00000006
PRINT_1                           000000D3
PRINT_2                           000000D6
PRINT_3                           000000D9
PRINT_A                           000000B2
PRINT_ASTERISK                    000000CA
PRINT_BOX                         000000D0
PRINT_D                           000000B5
PRINT_E                           000000B8
PRINT_G                           000000BB
PRINT_M                           000000BE
PRINT_O                           000000C1
PRINT_R                           000000C4
PRINT_SPACE                       000000CD
PRINT_Y                           000000C7
PS0                               00000000
PS1                               00000001
PS2                               00000002
PSA                               00000003
RA0                               00000000
RA1                               00000001
RA2                               00000002
RA3                               00000003
RA4                               00000004
RB0                               00000000
RB1                               00000001
RB2                               00000002
RB3                               00000003
RB4                               00000004
RB4_INT                           000000DC
RB5                               00000005
RB6                               00000006
RB7                               00000007
RBIE                              00000003
RBIF                              00000000
RD                                00000000
RIGHT_BTN                         00000005
RP0                               00000005
RP1                               00000006
SKIP_HANDLE_UP_DOWN               000000EB
STATUS                            00000003
T0CS                              00000005
T0IE                              00000005
T0IF                              00000002
T0SE                              00000004
MPASM 5.83  /HOME/MALEK/MPLABXPROJECTS/MEMOR   4-15-2019  18:49:03         PAGE 13
LCD

SYMBOL TABLE
  LABEL                             VALUE 

TMR0                              00000001
TMR0IE                            00000005
TMR0IF                            00000002
TRISA                             00000085
TRISA0                            00000000
TRISA1                            00000001
TRISA2                            00000002
TRISA3                            00000003
TRISA4                            00000004
TRISB                             00000086
TRISB0                            00000000
TRISB1                            00000001
TRISB2                            00000002
TRISB3                            00000003
TRISB4                            00000004
TRISB5                            00000005
TRISB6                            00000006
TRISB7                            00000007
UP_DOWN_BTN                       00000006
W                                 00000000
WELCOME_SCREEN                    00000035
WR                                00000001
WREN                              00000002
WRERR                             00000003
WRITE_CHAR                        0000009B
Z                                 00000002
_CONFIG                           00002007
_CP_OFF                           00003FFF
_CP_ON                            0000000F
_DEVID1                           00002006
_FOSC_EXTRC                       00003FFF
_FOSC_HS                          00003FFE
_FOSC_LP                          00003FFC
_FOSC_XT                          00003FFD
_HS_OSC                           00003FFE
_IDLOC0                           00002000
_IDLOC1                           00002001
_IDLOC2                           00002002
_IDLOC3                           00002003
_LP_OSC                           00003FFC
_PWRTE_OFF                        00003FFF
_PWRTE_ON                         00003FF7
_RC_OSC                           00003FFF
_WDTE_OFF                         00003FFB
_WDTE_ON                          00003FFF
_WDT_OFF                          00003FFB
_WDT_ON                           00003FFF
_XT_OSC                           00003FFD
__16F84A                          00000001

MPASM 5.83  /HOME/MALEK/MPLABXPROJECTS/MEMOR   4-15-2019  18:49:03         PAGE 14
LCD




Errors   :     0
Warnings :     0 reported,     0 suppressed
Messages :     3 reported,     0 suppressed

