MPLINK 5.09, LINKER
Linker Map File - Created Fri Apr 12 15:31:13 2019

                                 Section Info
                  Section       Type    Address   Location Size(Bytes)
                ---------  ---------  ---------  ---------  ---------
                   .org_0       code   0x000000    program   0x000002
                   .cinit    romdata   0x000001    program   0x000004
                   .org_1       code   0x000004    program   0x000186



                              Program Memory Usage 
                               Start         End      
                           ---------   ---------      
                            0x000000    0x000002      
                            0x000004    0x0000c6      
            198 out of 1094 program addresses used, program memory utilization is 18%



                              Symbols - Sorted by Name
                     Name    Address   Location    Storage File                     
                ---------  ---------  ---------  --------- ---------                
             CLEAR_SCREEN   0x000054    program     static /home/malek/MPLABXProjects/Memory Game.X/main.asm
                 DELAYFMS   0x0000b7    program     static /home/malek/MPLABXProjects/Memory Game.X/main.asm
                  DELAYMS   0x0000bd    program     static /home/malek/MPLABXProjects/Memory Game.X/main.asm
                   DELAYS   0x0000ab    program     static /home/malek/MPLABXProjects/Memory Game.X/main.asm
                       ET   0x00005b    program     static /home/malek/MPLABXProjects/Memory Game.X/main.asm
                   FINISH   0x000019    program     static /home/malek/MPLABXProjects/Memory Game.X/main.asm
           HANDLE_UP_DOWN   0x0000a6    program     static /home/malek/MPLABXProjects/Memory Game.X/main.asm
                 INDIRECT   0x00000e    program     static /home/malek/MPLABXProjects/Memory Game.X/main.asm
                      INF   0x000053    program     static /home/malek/MPLABXProjects/Memory Game.X/main.asm
                     INIT   0x000019    program     static /home/malek/MPLABXProjects/Memory Game.X/main.asm
                     LOOP   0x0000b0    program     static /home/malek/MPLABXProjects/Memory Game.X/main.asm
                    LOOP1   0x0000c1    program     static /home/malek/MPLABXProjects/Memory Game.X/main.asm
                    LOOP2   0x0000c3    program     static /home/malek/MPLABXProjects/Memory Game.X/main.asm
                    LOOP3   0x0000b9    program     static /home/malek/MPLABXProjects/Memory Game.X/main.asm
                    LOOPX   0x000012    program     static /home/malek/MPLABXProjects/Memory Game.X/main.asm
                    LOOPY   0x000015    program     static /home/malek/MPLABXProjects/Memory Game.X/main.asm
                     MAIN   0x000006    program     static /home/malek/MPLABXProjects/Memory Game.X/main.asm
                MAIN_MENU   0x000044    program     static /home/malek/MPLABXProjects/Memory Game.X/main.asm
                  PRINT_1   0x000092    program     static /home/malek/MPLABXProjects/Memory Game.X/main.asm
                  PRINT_2   0x000095    program     static /home/malek/MPLABXProjects/Memory Game.X/main.asm
                  PRINT_3   0x000098    program     static /home/malek/MPLABXProjects/Memory Game.X/main.asm
                  PRINT_A   0x000077    program     static /home/malek/MPLABXProjects/Memory Game.X/main.asm
           PRINT_ASTERISK   0x00008f    program     static /home/malek/MPLABXProjects/Memory Game.X/main.asm
                  PRINT_D   0x00007a    program     static /home/malek/MPLABXProjects/Memory Game.X/main.asm
                  PRINT_E   0x00007d    program     static /home/malek/MPLABXProjects/Memory Game.X/main.asm
                  PRINT_G   0x000080    program     static /home/malek/MPLABXProjects/Memory Game.X/main.asm
                  PRINT_M   0x000083    program     static /home/malek/MPLABXProjects/Memory Game.X/main.asm
                  PRINT_O   0x000086    program     static /home/malek/MPLABXProjects/Memory Game.X/main.asm
                  PRINT_R   0x000089    program     static /home/malek/MPLABXProjects/Memory Game.X/main.asm
                  PRINT_Y   0x00008c    program     static /home/malek/MPLABXProjects/Memory Game.X/main.asm
                  RB4_INT   0x00009b    program     static /home/malek/MPLABXProjects/Memory Game.X/main.asm
      SKIP_HANDLE_UP_DOWN   0x0000aa    program     static /home/malek/MPLABXProjects/Memory Game.X/main.asm
           WELCOME_SCREEN   0x000035    program     static /home/malek/MPLABXProjects/Memory Game.X/main.asm
               WRITE_CHAR   0x000060    program     static /home/malek/MPLABXProjects/Memory Game.X/main.asm



                              Symbols - Sorted by Address
                     Name    Address   Location    Storage File                     
                ---------  ---------  ---------  --------- ---------                
                     MAIN   0x000006    program     static /home/malek/MPLABXProjects/Memory Game.X/main.asm
                 INDIRECT   0x00000e    program     static /home/malek/MPLABXProjects/Memory Game.X/main.asm
                    LOOPX   0x000012    program     static /home/malek/MPLABXProjects/Memory Game.X/main.asm
                    LOOPY   0x000015    program     static /home/malek/MPLABXProjects/Memory Game.X/main.asm
                   FINISH   0x000019    program     static /home/malek/MPLABXProjects/Memory Game.X/main.asm
                     INIT   0x000019    program     static /home/malek/MPLABXProjects/Memory Game.X/main.asm
           WELCOME_SCREEN   0x000035    program     static /home/malek/MPLABXProjects/Memory Game.X/main.asm
                MAIN_MENU   0x000044    program     static /home/malek/MPLABXProjects/Memory Game.X/main.asm
                      INF   0x000053    program     static /home/malek/MPLABXProjects/Memory Game.X/main.asm
             CLEAR_SCREEN   0x000054    program     static /home/malek/MPLABXProjects/Memory Game.X/main.asm
                       ET   0x00005b    program     static /home/malek/MPLABXProjects/Memory Game.X/main.asm
               WRITE_CHAR   0x000060    program     static /home/malek/MPLABXProjects/Memory Game.X/main.asm
                  PRINT_A   0x000077    program     static /home/malek/MPLABXProjects/Memory Game.X/main.asm
                  PRINT_D   0x00007a    program     static /home/malek/MPLABXProjects/Memory Game.X/main.asm
                  PRINT_E   0x00007d    program     static /home/malek/MPLABXProjects/Memory Game.X/main.asm
                  PRINT_G   0x000080    program     static /home/malek/MPLABXProjects/Memory Game.X/main.asm
                  PRINT_M   0x000083    program     static /home/malek/MPLABXProjects/Memory Game.X/main.asm
                  PRINT_O   0x000086    program     static /home/malek/MPLABXProjects/Memory Game.X/main.asm
                  PRINT_R   0x000089    program     static /home/malek/MPLABXProjects/Memory Game.X/main.asm
                  PRINT_Y   0x00008c    program     static /home/malek/MPLABXProjects/Memory Game.X/main.asm
           PRINT_ASTERISK   0x00008f    program     static /home/malek/MPLABXProjects/Memory Game.X/main.asm
                  PRINT_1   0x000092    program     static /home/malek/MPLABXProjects/Memory Game.X/main.asm
                  PRINT_2   0x000095    program     static /home/malek/MPLABXProjects/Memory Game.X/main.asm
                  PRINT_3   0x000098    program     static /home/malek/MPLABXProjects/Memory Game.X/main.asm
                  RB4_INT   0x00009b    program     static /home/malek/MPLABXProjects/Memory Game.X/main.asm
           HANDLE_UP_DOWN   0x0000a6    program     static /home/malek/MPLABXProjects/Memory Game.X/main.asm
      SKIP_HANDLE_UP_DOWN   0x0000aa    program     static /home/malek/MPLABXProjects/Memory Game.X/main.asm
                   DELAYS   0x0000ab    program     static /home/malek/MPLABXProjects/Memory Game.X/main.asm
                     LOOP   0x0000b0    program     static /home/malek/MPLABXProjects/Memory Game.X/main.asm
                 DELAYFMS   0x0000b7    program     static /home/malek/MPLABXProjects/Memory Game.X/main.asm
                    LOOP3   0x0000b9    program     static /home/malek/MPLABXProjects/Memory Game.X/main.asm
                  DELAYMS   0x0000bd    program     static /home/malek/MPLABXProjects/Memory Game.X/main.asm
                    LOOP1   0x0000c1    program     static /home/malek/MPLABXProjects/Memory Game.X/main.asm
                    LOOP2   0x0000c3    program     static /home/malek/MPLABXProjects/Memory Game.X/main.asm


